; Function Attrs: mustprogress nofree norecurse nosync nounwind willreturn memory(write, argmem: readwrite, inaccessiblemem: none) uwtable
define hidden noundef signext i8 @nfaExecCastle_queueInitState(ptr noundef readonly captures(none) %0, ptr noundef readonly captures(none) %1) local_unnamed_addr #3 {
  %3 = getelementptr inbounds nuw i8, ptr %0, i64 64
  %4 = getelementptr inbounds nuw i8, ptr %0, i64 73
  %5 = load i8, ptr %4, align 1
  %.not = icmp eq i8 %5, 0
  br i1 %.not, label %mmbit_clear.exit.thread, label %6

6:                                                ; preds = %2
  %7 = getelementptr inbounds nuw i8, ptr %1, i64 24
  %8 = load ptr, ptr %7, align 8
  %9 = getelementptr inbounds nuw i8, ptr %0, i64 84
  %10 = load i32, ptr %9, align 4
  %11 = zext i32 %10 to i64
  %12 = getelementptr inbounds nuw i8, ptr %8, i64 %11
  %13 = getelementptr inbounds nuw i8, ptr %0, i64 68
  %14 = load i32, ptr %13, align 4
  %.not.i = icmp eq i32 %14, 0
  br i1 %.not.i, label %mmbit_clear.exit, label %15

15:                                               ; preds = %6
  %16 = icmp ugt i32 %14, 256
  br i1 %16, label %21, label %17

17:                                               ; preds = %15
  %18 = add nuw nsw i32 %14, 7
  %19 = lshr i32 %18, 3
  %20 = zext nneg i32 %19 to i64
  tail call void @llvm.memset.p0.i64(ptr align 1 %12, i8 0, i64 %20, i1 false)
  br label %mmbit_clear.exit

21:                                               ; preds = %15
  store i64 0, ptr %12, align 1
  br label %mmbit_clear.exit

mmbit_clear.exit:                                 ; preds = %21, %17, %6
  %.pr = load i8, ptr %4, align 1
  %.not11 = icmp eq i8 %.pr, 2
  br i1 %.not11, label %mmbit_clear.exit14, label %mmbit_clear.exit.thread

mmbit_clear.exit.thread:                          ; preds = %2, %mmbit_clear.exit
  %22 = getelementptr inbounds nuw i8, ptr %1, i64 24
  %23 = load ptr, ptr %22, align 8
  %24 = getelementptr inbounds nuw i8, ptr %0, i64 76
  %25 = load i32, ptr %24, align 4
  %26 = zext i32 %25 to i64
  %27 = getelementptr inbounds nuw i8, ptr %23, i64 %26
  %28 = load i32, ptr %3, align 32
  %.not.i12 = icmp eq i32 %28, 0
  br i1 %.not.i12, label %mmbit_clear.exit14, label %29

29:                                               ; preds = %mmbit_clear.exit.thread
  %30 = icmp ugt i32 %28, 256
  br i1 %30, label %35, label %31

31:                                               ; preds = %29
  %32 = add nuw nsw i32 %28, 7
  %33 = lshr i32 %32, 3
  %34 = zext nneg i32 %33 to i64
  tail call void @llvm.memset.p0.i64(ptr align 1 %27, i8 0, i64 %34, i1 false)
  br label %mmbit_clear.exit14

35:                                               ; preds = %29
  store i64 0, ptr %27, align 1
  br label %mmbit_clear.exit14

mmbit_clear.exit14:                               ; preds = %35, %31, %mmbit_clear.exit.thread, %mmbit_clear.exit
  ret i8 0
}